(dp0
S'agility'
p1
I4
sS'iterance'
p2
I4
sS'resistance'
p3
I3
sS'unlockedBoots'
p4
I2
sS'autoSave'
p5
I01
sS'playTime'
p6
I0
sS'serendipity'
p7
I4
sS'currentBoot'
p8
S'hermesBoots'
p9
sS'bank'
p10
I5411
sS'sketchbook'
p11
(lp12
S'self'
p13
aS'slingshot'
p14
aS'money'
p15
aS'car'
p16
aS'trogdor'
p17
aS'bear'
p18
aS'cannon'
p19
aS'shark'
p20
aS'tank'
p21
aS'nyanCat'
p22
aS'airplane'
p23
aS'sunMachine'
p24
asS'unlockedCannons'
p25
I4
sS'currentCannon'
p26
g24
sS'maxHeight'
p27
I0
sS'fortitude'
p28
I4
s.