(dp0
S'agility'
p1
I0
sS'iterance'
p2
I0
sS'resistance'
p3
I0
sS'unlockedBoots'
p4
I1
sS'autoSave'
p5
I01
sS'playTime'
p6
I0
sS'serendipity'
p7
I0
sS'currentBoot'
p8
S'oldBoots'
p9
sS'bank'
p10
I500
sS'sketchbook'
p11
(lp12
S'self'
p13
asS'unlockedCannons'
p14
I1
sS'currentCannon'
p15
S'slingshot'
p16
sS'maxHeight'
p17
I0
sS'fortitude'
p18
I0
s.