(dp0
S'agility'
p1
I3
sS'iterance'
p2
I4
sS'resistance'
p3
I2
sS'unlockedBoots'
p4
I3
sS'autoSave'
p5
I01
sS'playTime'
p6
I0
sS'serendipity'
p7
I4
sS'currentBoot'
p8
S'moonBoots'
p9
sS'bank'
p10
I3942
sS'sketchbook'
p11
(lp12
S'self'
p13
aS'slingshot'
p14
aS'car'
p15
aS'money'
p16
aS'bear'
p17
aS'cannon'
p18
aS'shark'
p19
aS'trogdor'
p20
aS'tank'
p21
aS'nyanCat'
p22
aS'airplane'
p23
aS'sunMachine'
p24
aS'carpeDiemMachine'
p25
asS'unlockedCannons'
p26
I5
sS'currentCannon'
p27
g25
sS'maxHeight'
p28
I0
sS'fortitude'
p29
I3
s.