(dp0
S'agility'
p1
I1
sS'iterance'
p2
I3
sS'resistance'
p3
I2
sS'unlockedBoots'
p4
I2
sS'autoSave'
p5
I01
sS'playTime'
p6
I0
sS'serendipity'
p7
I3
sS'currentBoot'
p8
S'hermesBoots'
p9
sS'bank'
p10
I4390
sS'sketchbook'
p11
(lp12
S'self'
p13
aS'slingshot'
p14
aS'money'
p15
aS'car'
p16
aS'trogdor'
p17
aS'bear'
p18
aS'nyanCat'
p19
aS'cannon'
p20
aS'tank'
p21
asS'unlockedCannons'
p22
I3
sS'currentCannon'
p23
g21
sS'maxHeight'
p24
I0
sS'fortitude'
p25
I2
s.